; Function Attrs: nounwind uwtable
define noalias noundef nonnull ptr @l_Lean_Parser_mkInputContext(ptr noundef %0, ptr noundef %1, i8 noundef zeroext %2) local_unnamed_addr #1 {
  %4 = icmp eq i8 %2, 0
  br i1 %4, label %5, label %18

5:                                                ; preds = %3
  %6 = ptrtoint ptr %0 to i64
  %7 = and i64 %6, 1
  %.not31 = icmp eq i64 %7, 0
  br i1 %.not31, label %8, label %lean_inc.exit24

8:                                                ; preds = %5
  %.val.i = load i32, ptr %0, align 4, !tbaa !4
  %9 = icmp sgt i32 %.val.i, 0
  br i1 %9, label %10, label %12, !prof !11

10:                                               ; preds = %8
  %11 = add nuw i32 %.val.i, 1
  store i32 %11, ptr %0, align 4, !tbaa !4
  br label %lean_inc.exit24

12:                                               ; preds = %8
  %.not.i25 = icmp eq i32 %.val.i, 0
  br i1 %.not.i25, label %lean_inc.exit24, label %13

13:                                               ; preds = %12
  tail call void @lean_inc_ref_cold(ptr noundef nonnull %0) #6
  br label %lean_inc.exit24

lean_inc.exit24:                                  ; preds = %13, %12, %10, %5
  %14 = tail call ptr @l_Lean_FileMap_ofString(ptr noundef %0) #6
  tail call void @lean_inc_heartbeat() #6
  %15 = tail call noalias ptr @mi_malloc_small(i64 noundef 32) #6
  %16 = icmp eq ptr %15, null
  br i1 %16, label %17, label %lean_alloc_ctor.exit

17:                                               ; preds = %lean_inc.exit24
  tail call void @lean_internal_panic_out_of_memory() #7
  unreachable

18:                                               ; preds = %3
  %19 = load ptr, ptr @l_Lean_Parser_ParserExtension_instInhabitedOLeanEntry___closed__1, align 8, !tbaa !9
  %20 = tail call ptr @l_String_crlfToLf_go(ptr noundef %0, ptr noundef %19, ptr noundef nonnull inttoptr (i64 1 to ptr), ptr noundef nonnull inttoptr (i64 1 to ptr)) #6
  %21 = ptrtoint ptr %0 to i64
  %22 = and i64 %21, 1
  %.not = icmp eq i64 %22, 0
  br i1 %.not, label %23, label %lean_dec.exit

23:                                               ; preds = %18
  %24 = load i32, ptr %0, align 4, !tbaa !4
  %25 = icmp sgt i32 %24, 1
  br i1 %25, label %26, label %28, !prof !11

26:                                               ; preds = %23
  %27 = add nsw i32 %24, -1
  store i32 %27, ptr %0, align 4, !tbaa !4
  br label %lean_dec.exit

28:                                               ; preds = %23
  %.not.i = icmp eq i32 %24, 0
  br i1 %.not.i, label %lean_dec.exit, label %29

29:                                               ; preds = %28
  tail call void @lean_dec_ref_cold(ptr noundef nonnull %0) #6
  br label %lean_dec.exit

lean_dec.exit:                                    ; preds = %29, %28, %26, %18
  %30 = ptrtoint ptr %20 to i64
  %31 = and i64 %30, 1
  %.not30 = icmp eq i64 %31, 0
  br i1 %.not30, label %32, label %lean_inc.exit

32:                                               ; preds = %lean_dec.exit
  %.val.i26 = load i32, ptr %20, align 4, !tbaa !4
  %33 = icmp sgt i32 %.val.i26, 0
  br i1 %33, label %34, label %36, !prof !11

34:                                               ; preds = %32
  %35 = add nuw i32 %.val.i26, 1
  store i32 %35, ptr %20, align 4, !tbaa !4
  br label %lean_inc.exit

36:                                               ; preds = %32
  %.not.i27 = icmp eq i32 %.val.i26, 0
  br i1 %.not.i27, label %lean_inc.exit, label %37

37:                                               ; preds = %36
  tail call void @lean_inc_ref_cold(ptr noundef nonnull %20) #6
  br label %lean_inc.exit

lean_inc.exit:                                    ; preds = %37, %36, %34, %lean_dec.exit
  %38 = tail call ptr @l_Lean_FileMap_ofString(ptr noundef %20) #6
  tail call void @lean_inc_heartbeat() #6
  %39 = tail call noalias ptr @mi_malloc_small(i64 noundef 32) #6
  %40 = icmp eq ptr %39, null
  br i1 %40, label %41, label %lean_alloc_ctor.exit

41:                                               ; preds = %lean_inc.exit
  tail call void @lean_internal_panic_out_of_memory() #7
  unreachable

lean_alloc_ctor.exit:                             ; preds = %lean_inc.exit, %lean_inc.exit24
  %.sink41 = phi ptr [ %15, %lean_inc.exit24 ], [ %39, %lean_inc.exit ]
  %.sink36 = phi ptr [ %0, %lean_inc.exit24 ], [ %20, %lean_inc.exit ]
  %.sink = phi ptr [ %14, %lean_inc.exit24 ], [ %38, %lean_inc.exit ]
  %42 = getelementptr inbounds nuw i8, ptr %.sink41, i64 4
  store i32 1, ptr %.sink41, align 4, !tbaa !4
  store i32 196640, ptr %42, align 4
  %43 = getelementptr inbounds nuw i8, ptr %.sink41, i64 8
  store ptr %.sink36, ptr %43, align 8, !tbaa !9
  %44 = getelementptr inbounds nuw i8, ptr %.sink41, i64 16
  store ptr %1, ptr %44, align 8, !tbaa !9
  %45 = getelementptr inbounds nuw i8, ptr %.sink41, i64 24
  store ptr %.sink, ptr %45, align 8, !tbaa !9
  ret ptr %.sink41
}